target datalayout = "e-m:e-p270:32:32-p271:32:32-p272:64:64-i64:64-i128:128-f80:128-n8:16:32:64-S128"
target triple = "x86_64-pc-linux-gnu"

%struct.GetBitContext = type { ptr, ptr, i32, i32, i32 }

; Function Attrs: alwaysinline nounwind willreturn memory(none) uwtable
define internal i32 @av_bswap32(i32 noundef %0) #4 {
  %2 = alloca i32, align 4
  store i32 %0, ptr %2, align 4, !tbaa !25
  %3 = load i32, ptr %2, align 4, !tbaa !25
  %4 = shl i32 %3, 8
  %5 = and i32 %4, 65280
  %6 = load i32, ptr %2, align 4, !tbaa !25
  %7 = lshr i32 %6, 8
  %8 = and i32 %7, 255
  %9 = or i32 %5, %8
  %10 = shl i32 %9, 16
  %11 = load i32, ptr %2, align 4, !tbaa !25
  %12 = lshr i32 %11, 16
  %13 = shl i32 %12, 8
  %14 = and i32 %13, 65280
  %15 = load i32, ptr %2, align 4, !tbaa !25
  %16 = lshr i32 %15, 16
  %17 = lshr i32 %16, 8
  %18 = and i32 %17, 255
  %19 = or i32 %14, %18
  %20 = or i32 %10, %19
  ret i32 %20
}

; Function Attrs: inlinehint nounwind uwtable
define internal i32 @get_bits(ptr noundef %0, i32 noundef %1) #5 {
  %3 = alloca ptr, align 8
  %4 = alloca i32, align 4
  %5 = alloca i32, align 4
  %6 = alloca i32, align 4
  %7 = alloca i32, align 4
  %8 = alloca i32, align 4
  store ptr %0, ptr %3, align 8, !tbaa !162
  store i32 %1, ptr %4, align 4, !tbaa !25
  call void @llvm.lifetime.start.p0(i64 4, ptr %5) #10
  call void @llvm.lifetime.start.p0(i64 4, ptr %6) #10
  %9 = load ptr, ptr %3, align 8, !tbaa !162
  %10 = getelementptr inbounds nuw %struct.GetBitContext, ptr %9, i32 0, i32 2
  %11 = load i32, ptr %10, align 8, !tbaa !185
  store i32 %11, ptr %6, align 4, !tbaa !25
  call void @llvm.lifetime.start.p0(i64 4, ptr %7) #10
  call void @llvm.lifetime.start.p0(i64 4, ptr %8) #10
  %12 = load ptr, ptr %3, align 8, !tbaa !162
  %13 = getelementptr inbounds nuw %struct.GetBitContext, ptr %12, i32 0, i32 4
  %14 = load i32, ptr %13, align 8, !tbaa !186
  store i32 %14, ptr %8, align 4, !tbaa !25
  %15 = load ptr, ptr %3, align 8, !tbaa !162
  %16 = getelementptr inbounds nuw %struct.GetBitContext, ptr %15, i32 0, i32 0
  %17 = load ptr, ptr %16, align 8, !tbaa !189
  %18 = load i32, ptr %6, align 4, !tbaa !25
  %19 = lshr i32 %18, 3
  %20 = zext i32 %19 to i64
  %21 = getelementptr inbounds nuw i8, ptr %17, i64 %20
  %22 = load i32, ptr %21, align 1, !tbaa !191
  %23 = call i32 @av_bswap32(i32 noundef %22) #12
  %24 = load i32, ptr %6, align 4, !tbaa !25
  %25 = and i32 %24, 7
  %26 = shl i32 %23, %25
  %27 = lshr i32 %26, 0
  store i32 %27, ptr %7, align 4, !tbaa !25
  %28 = load i32, ptr %7, align 4, !tbaa !25
  %29 = load i32, ptr %4, align 4, !tbaa !25
  %30 = sub nsw i32 32, %29
  %31 = lshr i32 %28, %30
  store i32 %31, ptr %5, align 4, !tbaa !25
  %32 = load i32, ptr %8, align 4, !tbaa !25
  %33 = load i32, ptr %6, align 4, !tbaa !25
  %34 = load i32, ptr %4, align 4, !tbaa !25
  %35 = add i32 %33, %34
  %36 = icmp ugt i32 %32, %35
  br i1 %36, label %37, label %41

37:                                               ; preds = %2
  %38 = load i32, ptr %6, align 4, !tbaa !25
  %39 = load i32, ptr %4, align 4, !tbaa !25
  %40 = add i32 %38, %39
  br label %43

41:                                               ; preds = %2
  %42 = load i32, ptr %8, align 4, !tbaa !25
  br label %43

43:                                               ; preds = %41, %37
  %44 = phi i32 [ %40, %37 ], [ %42, %41 ]
  store i32 %44, ptr %6, align 4, !tbaa !25
  %45 = load i32, ptr %6, align 4, !tbaa !25
  %46 = load ptr, ptr %3, align 8, !tbaa !162
  %47 = getelementptr inbounds nuw %struct.GetBitContext, ptr %46, i32 0, i32 2
  store i32 %45, ptr %47, align 8, !tbaa !185
  %48 = load i32, ptr %5, align 4, !tbaa !25
  call void @llvm.lifetime.end.p0(i64 4, ptr %8) #10
  call void @llvm.lifetime.end.p0(i64 4, ptr %7) #10
  call void @llvm.lifetime.end.p0(i64 4, ptr %6) #10
  call void @llvm.lifetime.end.p0(i64 4, ptr %5) #10
  ret i32 %48
}

; Function Attrs: inlinehint nounwind uwtable
define internal i32 @get_bits_long(ptr noundef %0, i32 noundef %1) #5 {
  %3 = alloca i32, align 4
  %4 = alloca ptr, align 8
  %5 = alloca i32, align 4
  %6 = alloca i32, align 4
  store ptr %0, ptr %4, align 8, !tbaa !162
  store i32 %1, ptr %5, align 4, !tbaa !25
  %7 = load i32, ptr %5, align 4, !tbaa !25
  %8 = icmp ne i32 %7, 0
  br i1 %8, label %10, label %9

9:                                                ; preds = %2
  store i32 0, ptr %3, align 4
  br label %29

10:                                               ; preds = %2
  %11 = load i32, ptr %5, align 4, !tbaa !25
  %12 = icmp sle i32 %11, 25
  br i1 %12, label %13, label %17

13:                                               ; preds = %10
  %14 = load ptr, ptr %4, align 8, !tbaa !162
  %15 = load i32, ptr %5, align 4, !tbaa !25
  %16 = call i32 @get_bits(ptr noundef %14, i32 noundef %15)
  store i32 %16, ptr %3, align 4
  br label %29

17:                                               ; preds = %10
  call void @llvm.lifetime.start.p0(i64 4, ptr %6) #10
  %18 = load ptr, ptr %4, align 8, !tbaa !162
  %19 = call i32 @get_bits(ptr noundef %18, i32 noundef 16)
  %20 = load i32, ptr %5, align 4, !tbaa !25
  %21 = sub nsw i32 %20, 16
  %22 = shl i32 %19, %21
  store i32 %22, ptr %6, align 4, !tbaa !25
  %23 = load i32, ptr %6, align 4, !tbaa !25
  %24 = load ptr, ptr %4, align 8, !tbaa !162
  %25 = load i32, ptr %5, align 4, !tbaa !25
  %26 = sub nsw i32 %25, 16
  %27 = call i32 @get_bits(ptr noundef %24, i32 noundef %26)
  %28 = or i32 %23, %27
  store i32 %28, ptr %3, align 4
  call void @llvm.lifetime.end.p0(i64 4, ptr %6) #10
  br label %29

29:                                               ; preds = %17, %13, %9
  %30 = load i32, ptr %3, align 4
  ret i32 %30
}

; Function Attrs: nounwind uwtable
define internal i32 @get_linear(ptr noundef %0, i32 noundef %1) #0 {
  %3 = alloca ptr, align 8
  %4 = alloca i32, align 4
  %5 = alloca i32, align 4
  store ptr %0, ptr %3, align 8, !tbaa !162
  store i32 %1, ptr %4, align 4, !tbaa !25
  call void @llvm.lifetime.start.p0(i64 4, ptr %5) #10
  %6 = load ptr, ptr %3, align 8, !tbaa !162
  %7 = load i32, ptr %4, align 4, !tbaa !25
  %8 = call i32 @get_bits_long(ptr noundef %6, i32 noundef %7)
  store i32 %8, ptr %5, align 4, !tbaa !25
  %9 = load i32, ptr %5, align 4, !tbaa !25
  %10 = lshr i32 %9, 1
  %11 = load i32, ptr %5, align 4, !tbaa !25
  %12 = and i32 %11, 1
  %13 = sub i32 0, %12
  %14 = xor i32 %10, %13
  call void @llvm.lifetime.end.p0(i64 4, ptr %5) #10
  ret i32 %14
}

; Function Attrs: nounwind uwtable
define internal void @get_linear_array(ptr noundef %0, ptr noundef %1, i32 noundef %2, i32 noundef %3) #0 {
  %5 = alloca ptr, align 8
  %6 = alloca ptr, align 8
  %7 = alloca i32, align 4
  %8 = alloca i32, align 4
  %9 = alloca i32, align 4
  store ptr %0, ptr %5, align 8, !tbaa !162
  store ptr %1, ptr %6, align 8, !tbaa !92
  store i32 %2, ptr %7, align 4, !tbaa !25
  store i32 %3, ptr %8, align 4, !tbaa !25
  call void @llvm.lifetime.start.p0(i64 4, ptr %9) #10
  %10 = load i32, ptr %8, align 4, !tbaa !25
  %11 = icmp eq i32 %10, 0
  br i1 %11, label %12, label %17

12:                                               ; preds = %4
  %13 = load ptr, ptr %6, align 8, !tbaa !92
  %14 = load i32, ptr %7, align 4, !tbaa !25
  %15 = sext i32 %14 to i64
  %16 = mul i64 4, %15
  call void @llvm.memset.p0.i64(ptr align 4 %13, i8 0, i64 %16, i1 false)
  br label %34

17:                                               ; preds = %4
  store i32 0, ptr %9, align 4, !tbaa !25
  br label %18

18:                                               ; preds = %30, %17
  %19 = load i32, ptr %9, align 4, !tbaa !25
  %20 = load i32, ptr %7, align 4, !tbaa !25
  %21 = icmp slt i32 %19, %20
  br i1 %21, label %22, label %33

22:                                               ; preds = %18
  %23 = load ptr, ptr %5, align 8, !tbaa !162
  %24 = load i32, ptr %8, align 4, !tbaa !25
  %25 = call i32 @get_linear(ptr noundef %23, i32 noundef %24)
  %26 = load ptr, ptr %6, align 8, !tbaa !92
  %27 = load i32, ptr %9, align 4, !tbaa !25
  %28 = sext i32 %27 to i64
  %29 = getelementptr inbounds i32, ptr %26, i64 %28
  store i32 %25, ptr %29, align 4, !tbaa !25
  br label %30

30:                                               ; preds = %22
  %31 = load i32, ptr %9, align 4, !tbaa !25
  %32 = add nsw i32 %31, 1
  store i32 %32, ptr %9, align 4, !tbaa !25
  br label %18, !llvm.loop !232

33:                                               ; preds = %18
  br label %34

34:                                               ; preds = %33, %12
  call void @llvm.lifetime.end.p0(i64 4, ptr %9) #10
  ret void
}