; Function Attrs: nofree norecurse nosync nounwind memory(read, argmem: readwrite, inaccessiblemem: none) uwtable
define internal fastcc void @get_linear_array(ptr noundef captures(none) %0, ptr noundef writeonly captures(none) %1, i32 noundef %2, i32 noundef %3) unnamed_addr #9 {
  %5 = icmp eq i32 %3, 0
  br i1 %5, label %31, label %.preheader

.preheader:                                       ; preds = %4
  %6 = icmp sgt i32 %2, 0
  br i1 %6, label %.lr.ph, label %.loopexit

.lr.ph:                                           ; preds = %.preheader
  %7 = icmp slt i32 %3, 26
  %8 = getelementptr inbounds nuw i8, ptr %0, i64 16
  %9 = getelementptr inbounds nuw i8, ptr %0, i64 24
  %10 = load ptr, ptr %0, align 8, !tbaa !149
  %11 = add nsw i32 %3, -16
  %12 = sub nsw i32 48, %3
  %13 = sub nsw i32 32, %3
  %wide.trip.count16 = zext nneg i32 %2 to i64
  br i1 %7, label %get_linear.exit.us, label %get_linear.exit

get_linear.exit.us:                               ; preds = %.lr.ph, %get_linear.exit.us
  %indvars.iv13 = phi i64 [ %indvars.iv.next14, %get_linear.exit.us ], [ 0, %.lr.ph ]
  %14 = load i32, ptr %8, align 8, !tbaa !153
  %15 = load i32, ptr %9, align 8, !tbaa !151
  %16 = lshr i32 %14, 3
  %17 = zext nneg i32 %16 to i64
  %18 = getelementptr inbounds nuw i8, ptr %10, i64 %17
  %19 = load i32, ptr %18, align 1, !tbaa !154
  %20 = tail call i32 @llvm.bswap.i32(i32 %19)
  %21 = and i32 %14, 7
  %22 = shl i32 %20, %21
  %23 = lshr i32 %22, %13
  %24 = add i32 %14, %3
  %25 = tail call i32 @llvm.umin.i32(i32 %15, i32 %24)
  store i32 %25, ptr %8, align 8, !tbaa !153
  %26 = lshr i32 %23, 1
  %27 = and i32 %23, 1
  %28 = sub nsw i32 0, %27
  %29 = xor i32 %26, %28
  %30 = getelementptr inbounds nuw i32, ptr %1, i64 %indvars.iv13
  store i32 %29, ptr %30, align 4, !tbaa !74
  %indvars.iv.next14 = add nuw nsw i64 %indvars.iv13, 1
  %exitcond17.not = icmp eq i64 %indvars.iv.next14, %wide.trip.count16
  br i1 %exitcond17.not, label %.loopexit, label %get_linear.exit.us, !llvm.loop !218

31:                                               ; preds = %4
  %32 = sext i32 %2 to i64
  %33 = shl nsw i64 %32, 2
  tail call void @llvm.memset.p0.i64(ptr align 4 %1, i8 0, i64 %33, i1 false)
  br label %.loopexit

get_linear.exit:                                  ; preds = %.lr.ph, %get_linear.exit
  %indvars.iv = phi i64 [ %indvars.iv.next, %get_linear.exit ], [ 0, %.lr.ph ]
  %34 = load i32, ptr %8, align 8, !tbaa !153
  %35 = load i32, ptr %9, align 8, !tbaa !151
  %36 = lshr i32 %34, 3
  %37 = zext nneg i32 %36 to i64
  %38 = getelementptr inbounds nuw i8, ptr %10, i64 %37
  %39 = load i32, ptr %38, align 1, !tbaa !154
  %40 = tail call i32 @llvm.bswap.i32(i32 %39)
  %41 = and i32 %34, 7
  %42 = shl i32 %40, %41
  %43 = lshr i32 %42, 16
  %44 = add i32 %34, 16
  %45 = tail call i32 @llvm.umin.i32(i32 %35, i32 %44)
  store i32 %45, ptr %8, align 8, !tbaa !153
  %46 = shl i32 %43, %11
  %47 = lshr i32 %45, 3
  %48 = zext nneg i32 %47 to i64
  %49 = getelementptr inbounds nuw i8, ptr %10, i64 %48
  %50 = load i32, ptr %49, align 1, !tbaa !154
  %51 = tail call i32 @llvm.bswap.i32(i32 %50)
  %52 = and i32 %45, 7
  %53 = shl i32 %51, %52
  %54 = lshr i32 %53, %12
  %55 = add i32 %45, %11
  %56 = tail call i32 @llvm.umin.i32(i32 %35, i32 %55)
  store i32 %56, ptr %8, align 8, !tbaa !153
  %57 = or i32 %54, %46
  %58 = lshr i32 %57, 1
  %59 = and i32 %57, 1
  %60 = sub nsw i32 0, %59
  %61 = xor i32 %58, %60
  %62 = getelementptr inbounds nuw i32, ptr %1, i64 %indvars.iv
  store i32 %61, ptr %62, align 4, !tbaa !74
  %indvars.iv.next = add nuw nsw i64 %indvars.iv, 1
  %exitcond.not = icmp eq i64 %indvars.iv.next, %wide.trip.count16
  br i1 %exitcond.not, label %.loopexit, label %get_linear.exit, !llvm.loop !218

.loopexit:                                        ; preds = %get_linear.exit, %get_linear.exit.us, %.preheader, %31
  ret void
}